target datalayout = "e-m:e-p270:32:32-p271:32:32-p272:64:64-i64:64-i128:128-f80:128-n8:16:32:64-S128"
target triple = "x86_64-pc-linux-gnu"

%"class.icu_77::UnicodeString" = type { %"class.icu_77::Replaceable", %"union.icu_77::UnicodeString::StackBufferOrFields" }
%"class.icu_77::Replaceable" = type { %"class.icu_77::UObject" }
%"class.icu_77::UObject" = type { ptr }
%"union.icu_77::UnicodeString::StackBufferOrFields" = type { %struct.anon.0, [32 x i8] }
%struct.anon.0 = type { i16, i32, i32, ptr }
%"class.icu_77::LocalPointer.12" = type { %"class.icu_77::LocalPointerBase.13" }
%"class.icu_77::LocalPointerBase.13" = type { ptr }
%"class.icu_77::PatternMap" = type <{ ptr, [52 x ptr], i8, [7 x i8] }>
%"class.icu_77::PtnElem" = type { ptr, %"class.icu_77::UnicodeString", %"class.icu_77::LocalPointer.10", %"class.icu_77::UnicodeString", i8, %"class.icu_77::LocalPointer.12" }
%"class.icu_77::LocalPointer.10" = type { %"class.icu_77::LocalPointerBase.11" }
%"class.icu_77::LocalPointerBase.11" = type { ptr }
%"class.icu_77::PatternMapIterator" = type { ptr, i32, ptr, %"class.icu_77::LocalPointer.4", ptr }
%"class.icu_77::LocalPointer.4" = type { %"class.icu_77::LocalPointerBase.5" }
%"class.icu_77::LocalPointerBase.5" = type { ptr }

; Function Attrs: mustprogress nounwind uwtable
define linkonce_odr noundef zeroext i1 @_ZNK6icu_7716LocalPointerBaseINS_7PtnElemEEneEPKS1_(ptr noundef nonnull align 8 dereferenceable(8) %0, ptr noundef %1) #0 comdat align 2 {
  %3 = alloca ptr, align 8
  %4 = alloca ptr, align 8
  store ptr %0, ptr %3, align 8, !tbaa !254
  store ptr %1, ptr %4, align 8, !tbaa !77
  %5 = load ptr, ptr %3, align 8
  %6 = getelementptr inbounds nuw %"class.icu_77::LocalPointerBase.13", ptr %5, i32 0, i32 0
  %7 = load ptr, ptr %6, align 8, !tbaa !256
  %8 = load ptr, ptr %4, align 8, !tbaa !77
  %9 = icmp ne ptr %7, %8
  ret i1 %9
}

; Function Attrs: mustprogress uwtable
define noundef signext i8 @_ZNK6icu_7718PatternMapIterator7hasNextEv(ptr noundef nonnull align 8 dereferenceable(40) %0) #1 align 2 {
  %2 = alloca i8, align 1
  %3 = alloca ptr, align 8
  %4 = alloca i32, align 4
  %5 = alloca ptr, align 8
  %6 = alloca i32, align 4
  store ptr %0, ptr %3, align 8, !tbaa !229
  %7 = load ptr, ptr %3, align 8
  call void @llvm.lifetime.start.p0(i64 4, ptr %4) #13
  %8 = getelementptr inbounds nuw %"class.icu_77::PatternMapIterator", ptr %7, i32 0, i32 1
  %9 = load i32, ptr %8, align 8, !tbaa !235
  store i32 %9, ptr %4, align 4, !tbaa !14
  call void @llvm.lifetime.start.p0(i64 8, ptr %5) #13
  %10 = getelementptr inbounds nuw %"class.icu_77::PatternMapIterator", ptr %7, i32 0, i32 2
  %11 = load ptr, ptr %10, align 8, !tbaa !236
  store ptr %11, ptr %5, align 8, !tbaa !77
  %12 = getelementptr inbounds nuw %"class.icu_77::PatternMapIterator", ptr %7, i32 0, i32 4
  %13 = load ptr, ptr %12, align 8, !tbaa !231
  %14 = icmp eq ptr %13, null
  br i1 %14, label %15, label %16

15:                                               ; preds = %1
  store i8 0, ptr %2, align 1
  store i32 1, ptr %6, align 4
  br label %45

16:                                               ; preds = %1
  br label %17

17:                                               ; preds = %41, %28, %16
  %18 = load i32, ptr %4, align 4, !tbaa !14
  %19 = icmp slt i32 %18, 52
  br i1 %19, label %20, label %44

20:                                               ; preds = %17
  %21 = load ptr, ptr %5, align 8, !tbaa !77
  %22 = icmp ne ptr %21, null
  br i1 %22, label %23, label %31

23:                                               ; preds = %20
  %24 = load ptr, ptr %5, align 8, !tbaa !77
  %25 = getelementptr inbounds nuw %"class.icu_77::PtnElem", ptr %24, i32 0, i32 5
  %26 = call noundef zeroext i1 @_ZNK6icu_7716LocalPointerBaseINS_7PtnElemEEneEPKS1_(ptr noundef nonnull align 8 dereferenceable(8) %25, ptr noundef null)
  br i1 %26, label %27, label %28

27:                                               ; preds = %23
  store i8 1, ptr %2, align 1
  store i32 1, ptr %6, align 4
  br label %45

28:                                               ; preds = %23
  %29 = load i32, ptr %4, align 4, !tbaa !14
  %30 = add nsw i32 %29, 1
  store i32 %30, ptr %4, align 4, !tbaa !14
  store ptr null, ptr %5, align 8, !tbaa !77
  br label %17, !llvm.loop !237

31:                                               ; preds = %20
  %32 = getelementptr inbounds nuw %"class.icu_77::PatternMapIterator", ptr %7, i32 0, i32 4
  %33 = load ptr, ptr %32, align 8, !tbaa !231
  %34 = getelementptr inbounds nuw %"class.icu_77::PatternMap", ptr %33, i32 0, i32 1
  %35 = load i32, ptr %4, align 4, !tbaa !14
  %36 = sext i32 %35 to i64
  %37 = getelementptr inbounds [52 x ptr], ptr %34, i64 0, i64 %36
  %38 = load ptr, ptr %37, align 8, !tbaa !77
  %39 = icmp ne ptr %38, null
  br i1 %39, label %40, label %41

40:                                               ; preds = %31
  store i8 1, ptr %2, align 1
  store i32 1, ptr %6, align 4
  br label %45

41:                                               ; preds = %31
  %42 = load i32, ptr %4, align 4, !tbaa !14
  %43 = add nsw i32 %42, 1
  store i32 %43, ptr %4, align 4, !tbaa !14
  br label %17, !llvm.loop !237

44:                                               ; preds = %17
  store i8 0, ptr %2, align 1
  store i32 1, ptr %6, align 4
  br label %45

45:                                               ; preds = %44, %40, %27, %15
  call void @llvm.lifetime.end.p0(i64 8, ptr %5) #13
  call void @llvm.lifetime.end.p0(i64 4, ptr %4) #13
  %46 = load i8, ptr %2, align 1
  ret i8 %46
}