; Function Attrs: mustprogress nofree norecurse nosync nounwind willreturn memory(read, inaccessiblemem: none) uwtable
define noundef signext range(i8 0, 2) i8 @_ZNK6icu_7718PatternMapIterator7hasNextEv(ptr noundef nonnull readonly align 8 captures(none) dereferenceable(40) %0) local_unnamed_addr #17 align 2 {
  %2 = getelementptr inbounds nuw i8, ptr %0, i64 32
  %3 = load ptr, ptr %2, align 8, !tbaa !138
  %4 = icmp eq ptr %3, null
  br i1 %4, label %.loopexit, label %.preheader

.preheader:                                       ; preds = %1
  %5 = getelementptr inbounds nuw i8, ptr %0, i64 8
  %6 = load i32, ptr %5, align 8, !tbaa !142
  %7 = getelementptr inbounds nuw i8, ptr %3, i64 8
  %8 = icmp slt i32 %6, 52
  br i1 %8, label %.lr.ph.preheader, label %.loopexit

.lr.ph.preheader:                                 ; preds = %.preheader
  %9 = getelementptr inbounds nuw i8, ptr %0, i64 16
  %10 = load ptr, ptr %9, align 8, !tbaa !143
  %11 = sext i32 %6 to i64
  br label %.lr.ph

.lr.ph:                                           ; preds = %.lr.ph.preheader, %.backedge
  %indvars.iv = phi i64 [ %11, %.lr.ph.preheader ], [ %indvars.iv.next, %.backedge ]
  %.012 = phi ptr [ %10, %.lr.ph.preheader ], [ null, %.backedge ]
  %.not = icmp eq ptr %.012, null
  br i1 %.not, label %16, label %12

12:                                               ; preds = %.lr.ph
  %13 = getelementptr inbounds nuw i8, ptr %.012, i64 152
  %14 = load ptr, ptr %13, align 8, !tbaa !63
  %.not10 = icmp eq ptr %14, null
  br i1 %.not10, label %.backedge, label %.loopexit

.backedge:                                        ; preds = %16, %12
  %indvars.iv.next = add nsw i64 %indvars.iv, 1
  %15 = and i64 %indvars.iv.next, 4294967295
  %exitcond.not = icmp eq i64 %15, 52
  br i1 %exitcond.not, label %.loopexit, label %.lr.ph, !llvm.loop !144

16:                                               ; preds = %.lr.ph
  %17 = getelementptr inbounds [52 x ptr], ptr %7, i64 0, i64 %indvars.iv
  %18 = load ptr, ptr %17, align 8, !tbaa !53
  %.not9 = icmp eq ptr %18, null
  br i1 %.not9, label %.backedge, label %.loopexit

.loopexit:                                        ; preds = %12, %16, %.backedge, %.preheader, %1
  %.08 = phi i8 [ 0, %1 ], [ 0, %.preheader ], [ 1, %12 ], [ 1, %16 ], [ 0, %.backedge ]
  ret i8 %.08
}